target datalayout = "e-m:e-p270:32:32-p271:32:32-p272:64:64-i64:64-i128:128-f80:128-n8:16:32:64-S128"
target triple = "x86_64-pc-linux-gnu"

%struct.gie_ctx = type { [10001 x i8], [10001 x i8], [10001 x i8], ptr, %union.PJ_COORD, %union.PJ_COORD, %union.PJ_COORD, i32, i32, i32, i32, i32, i32, i32, i32, i32, i32, i32, i32, i32, i64, i64, i64, double, i32, i32, i32, ptr, ptr }
%union.PJ_COORD = type { [4 x double] }

@_ZL1T = internal global %struct.gie_ctx zeroinitializer, align 8

; Function Attrs: mustprogress uwtable
define internal noundef i32 @_ZL7verbosePKc(ptr noundef %0) #1 {
  %2 = alloca i32, align 4
  %3 = alloca ptr, align 8
  %4 = alloca i32, align 4
  store ptr %0, ptr %3, align 8
  %5 = load ptr, ptr %3, align 8
  %6 = call noundef double @_Z9proj_atofPKc(ptr noundef %5)
  %7 = fptosi double %6 to i32
  store i32 %7, ptr %4, align 4
  %8 = load i32, ptr getelementptr inbounds (%struct.gie_ctx, ptr @_ZL1T, i32 0, i32 8), align 4
  %9 = icmp slt i32 %8, 0
  br i1 %9, label %10, label %11

10:                                               ; preds = %1
  store i32 0, ptr %2, align 4
  br label %21

11:                                               ; preds = %1
  %12 = load ptr, ptr %3, align 8
  %13 = call i64 @strlen(ptr noundef %12) #14
  %14 = icmp ne i64 %13, 0
  br i1 %14, label %15, label %17

15:                                               ; preds = %11
  %16 = load i32, ptr %4, align 4
  store i32 %16, ptr getelementptr inbounds (%struct.gie_ctx, ptr @_ZL1T, i32 0, i32 8), align 4
  br label %20

17:                                               ; preds = %11
  %18 = load i32, ptr getelementptr inbounds (%struct.gie_ctx, ptr @_ZL1T, i32 0, i32 8), align 4
  %19 = add nsw i32 %18, 1
  store i32 %19, ptr getelementptr inbounds (%struct.gie_ctx, ptr @_ZL1T, i32 0, i32 8), align 4
  br label %20

20:                                               ; preds = %17, %15
  store i32 0, ptr %2, align 4
  br label %21

21:                                               ; preds = %20, %10
  %22 = load i32, ptr %2, align 4
  ret i32 %22
}