; Function Attrs: mustprogress norecurse uwtable
define internal fastcc void @_ZL7verbosePKc(ptr noundef %0) unnamed_addr #10 {
  %2 = tail call noundef double @_Z9proj_atofPKc(ptr noundef %0)
  %3 = load i32, ptr getelementptr inbounds (%struct.gie_ctx, ptr @_ZL1T, i64 0, i32 8), align 4
  %4 = icmp slt i32 %3, 0
  br i1 %4, label %8, label %5

5:                                                ; preds = %1
  %6 = fptosi double %2 to i32
  %char0 = load i8, ptr %0, align 1
  %.not = icmp eq i8 %char0, 0
  %7 = add nuw nsw i32 %3, 1
  %storemerge = select i1 %.not, i32 %7, i32 %6
  store i32 %storemerge, ptr getelementptr inbounds (%struct.gie_ctx, ptr @_ZL1T, i64 0, i32 8), align 4
  br label %8

8:                                                ; preds = %1, %5
  ret void
}